target datalayout = "e-m:e-p270:32:32-p271:32:32-p272:64:64-i64:64-i128:128-f80:128-n8:16:32:64-S128"
target triple = "x86_64-pc-linux-gnu"

%"class.casadi::Sparsity" = type { %"class.casadi::SharedObject" }
%"class.casadi::SharedObject" = type { ptr }
%"class.casadi::SymbolicMX" = type { %"class.casadi::MXNode", %"class.std::__cxx11::basic_string" }
%"class.casadi::MXNode" = type { %"class.casadi::SharedObjectInternal", i64, %"class.std::vector", %"class.casadi::Sparsity" }
%"class.casadi::SharedObjectInternal" = type { ptr, i64, ptr }
%"class.std::vector" = type { %"struct.std::_Vector_base" }
%"struct.std::_Vector_base" = type { %"struct.std::_Vector_base<casadi::MX, std::allocator<casadi::MX>>::_Vector_impl" }
%"struct.std::_Vector_base<casadi::MX, std::allocator<casadi::MX>>::_Vector_impl" = type { %"struct.std::_Vector_base<casadi::MX, std::allocator<casadi::MX>>::_Vector_impl_data" }
%"struct.std::_Vector_base<casadi::MX, std::allocator<casadi::MX>>::_Vector_impl_data" = type { ptr, ptr, ptr }
%"class.std::__cxx11::basic_string" = type { %"struct.std::__cxx11::basic_string<char>::_Alloc_hider", i64, %union.anon }
%"struct.std::__cxx11::basic_string<char>::_Alloc_hider" = type { ptr }
%union.anon = type { i64, [8 x i8] }

; Function Attrs: mustprogress nounwind uwtable
define linkonce_odr hidden void @_ZN6casadi8SparsityD2Ev(ptr noundef nonnull align 8 dereferenceable(8) %0) unnamed_addr #5 comdat align 2 {
  %2 = alloca ptr, align 8
  store ptr %0, ptr %2, align 8
  %3 = load ptr, ptr %2, align 8
  call void @_ZN6casadi12SharedObjectD2Ev(ptr noundef nonnull align 8 dereferenceable(8) %3) #3
  ret void
}

; Function Attrs: mustprogress uwtable
define void @_ZN6casadi10SymbolicMXC2ERKNSt7__cxx1112basic_stringIcSt11char_traitsIcESaIcEEExx(ptr noundef nonnull align 8 dereferenceable(96) %0, ptr noundef nonnull align 8 dereferenceable(32) %1, i64 noundef %2, i64 noundef %3) unnamed_addr #4 align 2 personality ptr @__gxx_personality_v0 {
  %5 = alloca ptr, align 8
  %6 = alloca ptr, align 8
  %7 = alloca i64, align 8
  %8 = alloca i64, align 8
  %9 = alloca ptr, align 8
  %10 = alloca i32, align 4
  %11 = alloca %"class.casadi::Sparsity", align 8
  store ptr %0, ptr %5, align 8
  store ptr %1, ptr %6, align 8
  store i64 %2, ptr %7, align 8
  store i64 %3, ptr %8, align 8
  %12 = load ptr, ptr %5, align 8
  call void @_ZN6casadi6MXNodeC2Ev(ptr noundef nonnull align 8 dereferenceable(64) %12)
  store ptr getelementptr inbounds ({ [108 x ptr] }, ptr @_ZTVN6casadi10SymbolicMXE, i32 0, i32 0, i32 2), ptr %12, align 8
  %13 = getelementptr inbounds %"class.casadi::SymbolicMX", ptr %12, i32 0, i32 1
  %14 = load ptr, ptr %6, align 8
  invoke void @_ZNSt7__cxx1112basic_stringIcSt11char_traitsIcESaIcEEC1ERKS4_(ptr noundef nonnull align 8 dereferenceable(32) %13, ptr noundef nonnull align 8 dereferenceable(32) %14)
          to label %15 unwind label %20

15:                                               ; preds = %4
  %16 = load i64, ptr %7, align 8
  %17 = load i64, ptr %8, align 8
  invoke void @_ZN6casadi8Sparsity5denseExx(ptr dead_on_unwind writable sret(%"class.casadi::Sparsity") align 8 %11, i64 noundef %16, i64 noundef %17)
          to label %18 unwind label %24

18:                                               ; preds = %15
  invoke void @_ZN6casadi6MXNode12set_sparsityERKNS_8SparsityE(ptr noundef nonnull align 8 dereferenceable(64) %12, ptr noundef nonnull align 8 dereferenceable(8) %11)
          to label %19 unwind label %28

19:                                               ; preds = %18
  call void @_ZN6casadi8SparsityD2Ev(ptr noundef nonnull align 8 dereferenceable(8) %11) #3
  ret void

20:                                               ; preds = %4
  %21 = landingpad { ptr, i32 }
          cleanup
  %22 = extractvalue { ptr, i32 } %21, 0
  store ptr %22, ptr %9, align 8
  %23 = extractvalue { ptr, i32 } %21, 1
  store i32 %23, ptr %10, align 4
  br label %33

24:                                               ; preds = %15
  %25 = landingpad { ptr, i32 }
          cleanup
  %26 = extractvalue { ptr, i32 } %25, 0
  store ptr %26, ptr %9, align 8
  %27 = extractvalue { ptr, i32 } %25, 1
  store i32 %27, ptr %10, align 4
  br label %32

28:                                               ; preds = %18
  %29 = landingpad { ptr, i32 }
          cleanup
  %30 = extractvalue { ptr, i32 } %29, 0
  store ptr %30, ptr %9, align 8
  %31 = extractvalue { ptr, i32 } %29, 1
  store i32 %31, ptr %10, align 4
  call void @_ZN6casadi8SparsityD2Ev(ptr noundef nonnull align 8 dereferenceable(8) %11) #3
  br label %32

32:                                               ; preds = %28, %24
  call void @_ZNSt7__cxx1112basic_stringIcSt11char_traitsIcESaIcEED1Ev(ptr noundef nonnull align 8 dereferenceable(32) %13) #3
  br label %33

33:                                               ; preds = %32, %20
  call void @_ZN6casadi6MXNodeD2Ev(ptr noundef nonnull align 8 dereferenceable(64) %12) #3
  br label %34

34:                                               ; preds = %33
  %35 = load ptr, ptr %9, align 8
  %36 = load i32, ptr %10, align 4
  %37 = insertvalue { ptr, i32 } poison, ptr %35, 0
  %38 = insertvalue { ptr, i32 } %37, i32 %36, 1
  resume { ptr, i32 } %38
}