; Function Attrs: mustprogress uwtable
define void @_ZN6casadi10SymbolicMXC2ERKNSt7__cxx1112basic_stringIcSt11char_traitsIcESaIcEEExx(ptr noundef nonnull align 8 dereferenceable(96) %0, ptr noundef nonnull align 8 dereferenceable(32) %1, i64 noundef %2, i64 noundef %3) unnamed_addr #3 align 2 personality ptr @__gxx_personality_v0 {
  %5 = alloca %"class.casadi::Sparsity", align 8
  tail call void @_ZN6casadi6MXNodeC2Ev(ptr noundef nonnull align 8 dereferenceable(64) %0)
  store ptr getelementptr inbounds ({ [108 x ptr] }, ptr @_ZTVN6casadi10SymbolicMXE, i64 0, i32 0, i64 2), ptr %0, align 8
  %6 = getelementptr inbounds i8, ptr %0, i64 64
  invoke void @_ZNSt7__cxx1112basic_stringIcSt11char_traitsIcESaIcEEC1ERKS4_(ptr noundef nonnull align 8 dereferenceable(32) %6, ptr noundef nonnull align 8 dereferenceable(32) %1)
          to label %7 unwind label %10

7:                                                ; preds = %4
  invoke void @_ZN6casadi8Sparsity5denseExx(ptr dead_on_unwind nonnull writable sret(%"class.casadi::Sparsity") align 8 %5, i64 noundef %2, i64 noundef %3)
          to label %8 unwind label %12

8:                                                ; preds = %7
  invoke void @_ZN6casadi6MXNode12set_sparsityERKNS_8SparsityE(ptr noundef nonnull align 8 dereferenceable(64) %0, ptr noundef nonnull align 8 dereferenceable(8) %5)
          to label %9 unwind label %14

9:                                                ; preds = %8
  call void @_ZN6casadi12SharedObjectD2Ev(ptr noundef nonnull align 8 dereferenceable(8) %5) #14
  ret void

10:                                               ; preds = %4
  %11 = landingpad { ptr, i32 }
          cleanup
  br label %17

12:                                               ; preds = %7
  %13 = landingpad { ptr, i32 }
          cleanup
  br label %16

14:                                               ; preds = %8
  %15 = landingpad { ptr, i32 }
          cleanup
  call void @_ZN6casadi12SharedObjectD2Ev(ptr noundef nonnull align 8 dereferenceable(8) %5) #14
  br label %16

16:                                               ; preds = %14, %12
  %.pn = phi { ptr, i32 } [ %15, %14 ], [ %13, %12 ]
  call void @_ZNSt7__cxx1112basic_stringIcSt11char_traitsIcESaIcEED1Ev(ptr noundef nonnull align 8 dereferenceable(32) %6) #14
  br label %17

17:                                               ; preds = %16, %10
  %.pn.pn = phi { ptr, i32 } [ %.pn, %16 ], [ %11, %10 ]
  call void @_ZN6casadi6MXNodeD2Ev(ptr noundef nonnull align 8 dereferenceable(64) %0) #14
  resume { ptr, i32 } %.pn.pn
}